target datalayout = "e-m:e-p270:32:32-p271:32:32-p272:64:64-i64:64-i128:128-f80:128-n8:16:32:64-S128"
target triple = "x86_64-pc-linux-gnu"

%struct.config_generic = type { ptr, i32, i32, ptr, ptr, i32, i32, i32, i32, i32, i32, i32, i32, i32, ptr, ptr, %struct.dlist_node, %struct.slist_node, %struct.slist_node, ptr, ptr, i32 }
%struct.dlist_node = type { ptr, ptr }
%struct.slist_node = type { ptr }

; Function Attrs: inlinehint nounwind uwtable
define internal ptr @DatumGetPointer(i64 noundef %0) #10 {
  %2 = alloca i64, align 8
  store i64 %0, ptr %2, align 8
  %3 = load i64, ptr %2, align 8
  %4 = inttoptr i64 %3 to ptr
  ret ptr %4
}

; Function Attrs: nounwind uwtable
define dso_local ptr @GUCArrayDelete(ptr noundef %0, ptr noundef %1) #0 {
  %3 = alloca ptr, align 8
  %4 = alloca ptr, align 8
  %5 = alloca ptr, align 8
  %6 = alloca ptr, align 8
  %7 = alloca ptr, align 8
  %8 = alloca i32, align 4
  %9 = alloca i32, align 4
  %10 = alloca i32, align 4
  %11 = alloca i64, align 8
  %12 = alloca ptr, align 8
  %13 = alloca i8, align 1
  store ptr %0, ptr %4, align 8
  store ptr %1, ptr %5, align 8
  call void @llvm.lifetime.start.p0(i64 8, ptr %6) #16
  call void @llvm.lifetime.start.p0(i64 8, ptr %7) #16
  call void @llvm.lifetime.start.p0(i64 4, ptr %8) #16
  call void @llvm.lifetime.start.p0(i64 4, ptr %9) #16
  %14 = load ptr, ptr %5, align 8
  %15 = call zeroext i1 @validate_option_array_item(ptr noundef %14, ptr noundef null, i1 noundef zeroext false)
  %16 = load ptr, ptr %5, align 8
  %17 = call ptr @find_option(ptr noundef %16, i1 noundef zeroext false, i1 noundef zeroext true, i32 noundef 19)
  store ptr %17, ptr %6, align 8
  %18 = load ptr, ptr %6, align 8
  %19 = icmp ne ptr %18, null
  br i1 %19, label %20, label %24

20:                                               ; preds = %2
  %21 = load ptr, ptr %6, align 8
  %22 = getelementptr inbounds nuw %struct.config_generic, ptr %21, i32 0, i32 0
  %23 = load ptr, ptr %22, align 8
  store ptr %23, ptr %5, align 8
  br label %24

24:                                               ; preds = %20, %2
  %25 = load ptr, ptr %4, align 8
  %26 = icmp ne ptr %25, null
  br i1 %26, label %28, label %27

27:                                               ; preds = %24
  store ptr null, ptr %3, align 8
  store i32 1, ptr %10, align 4
  br label %81

28:                                               ; preds = %24
  store ptr null, ptr %7, align 8
  store i32 1, ptr %9, align 4
  store i32 1, ptr %8, align 4
  br label %29

29:                                               ; preds = %76, %28
  %30 = load i32, ptr %8, align 4
  %31 = load ptr, ptr %4, align 8
  %32 = getelementptr inbounds nuw i8, ptr %31, i64 16
  %33 = getelementptr inbounds i32, ptr %32, i64 0
  %34 = load i32, ptr %33, align 4
  %35 = icmp sle i32 %30, %34
  br i1 %35, label %36, label %79

36:                                               ; preds = %29
  call void @llvm.lifetime.start.p0(i64 8, ptr %11) #16
  call void @llvm.lifetime.start.p0(i64 8, ptr %12) #16
  call void @llvm.lifetime.start.p0(i64 1, ptr %13) #16
  %37 = load ptr, ptr %4, align 8
  %38 = call i64 @array_ref(ptr noundef %37, i32 noundef 1, ptr noundef %8, i32 noundef -1, i32 noundef -1, i1 noundef zeroext false, i8 noundef signext 105, ptr noundef %13)
  store i64 %38, ptr %11, align 8
  %39 = load i8, ptr %13, align 1, !range !4, !noundef !5
  %40 = trunc i8 %39 to i1
  br i1 %40, label %41, label %42

41:                                               ; preds = %36
  store i32 4, ptr %10, align 4
  br label %73

42:                                               ; preds = %36
  %43 = load i64, ptr %11, align 8
  %44 = call ptr @DatumGetPointer(i64 noundef %43)
  %45 = call ptr @text_to_cstring(ptr noundef %44)
  store ptr %45, ptr %12, align 8
  %46 = load ptr, ptr %12, align 8
  %47 = load ptr, ptr %5, align 8
  %48 = load ptr, ptr %5, align 8
  %49 = call i64 @strlen(ptr noundef %48) #17
  %50 = call i32 @strncmp(ptr noundef %46, ptr noundef %47, i64 noundef %49) #17
  %51 = icmp eq i32 %50, 0
  br i1 %51, label %52, label %61

52:                                               ; preds = %42
  %53 = load ptr, ptr %12, align 8
  %54 = load ptr, ptr %5, align 8
  %55 = call i64 @strlen(ptr noundef %54) #17
  %56 = getelementptr inbounds nuw i8, ptr %53, i64 %55
  %57 = load i8, ptr %56, align 1
  %58 = sext i8 %57 to i32
  %59 = icmp eq i32 %58, 61
  br i1 %59, label %60, label %61

60:                                               ; preds = %52
  store i32 4, ptr %10, align 4
  br label %73

61:                                               ; preds = %52, %42
  %62 = load ptr, ptr %7, align 8
  %63 = icmp ne ptr %62, null
  br i1 %63, label %64, label %68

64:                                               ; preds = %61
  %65 = load ptr, ptr %7, align 8
  %66 = load i64, ptr %11, align 8
  %67 = call ptr @array_set(ptr noundef %65, i32 noundef 1, ptr noundef %9, i64 noundef %66, i1 noundef zeroext false, i32 noundef -1, i32 noundef -1, i1 noundef zeroext false, i8 noundef signext 105)
  store ptr %67, ptr %7, align 8
  br label %70

68:                                               ; preds = %61
  %69 = call ptr @construct_array_builtin(ptr noundef %11, i32 noundef 1, i32 noundef 25)
  store ptr %69, ptr %7, align 8
  br label %70

70:                                               ; preds = %68, %64
  %71 = load i32, ptr %9, align 4
  %72 = add i32 %71, 1
  store i32 %72, ptr %9, align 4
  store i32 0, ptr %10, align 4
  br label %73

73:                                               ; preds = %70, %60, %41
  call void @llvm.lifetime.end.p0(i64 1, ptr %13) #16
  call void @llvm.lifetime.end.p0(i64 8, ptr %12) #16
  call void @llvm.lifetime.end.p0(i64 8, ptr %11) #16
  %74 = load i32, ptr %10, align 4
  switch i32 %74, label %83 [
    i32 0, label %75
    i32 4, label %76
  ]

75:                                               ; preds = %73
  br label %76

76:                                               ; preds = %75, %73
  %77 = load i32, ptr %8, align 4
  %78 = add i32 %77, 1
  store i32 %78, ptr %8, align 4
  br label %29, !llvm.loop !68

79:                                               ; preds = %29
  %80 = load ptr, ptr %7, align 8
  store ptr %80, ptr %3, align 8
  store i32 1, ptr %10, align 4
  br label %81

81:                                               ; preds = %79, %27
  call void @llvm.lifetime.end.p0(i64 4, ptr %9) #16
  call void @llvm.lifetime.end.p0(i64 4, ptr %8) #16
  call void @llvm.lifetime.end.p0(i64 8, ptr %7) #16
  call void @llvm.lifetime.end.p0(i64 8, ptr %6) #16
  %82 = load ptr, ptr %3, align 8
  ret ptr %82

83:                                               ; preds = %73
  unreachable
}