; Function Attrs: nounwind uwtable
define dso_local ptr @GUCArrayDelete(ptr noundef %0, ptr noundef %1) local_unnamed_addr #0 {
  %3 = alloca i32, align 4
  %4 = alloca i32, align 4
  %5 = alloca i64, align 8
  %6 = alloca i8, align 1
  call void @llvm.lifetime.start.p0(i64 4, ptr nonnull %3) #29
  call void @llvm.lifetime.start.p0(i64 4, ptr nonnull %4) #29
  %7 = tail call fastcc zeroext i1 @validate_option_array_item(ptr noundef %1, ptr noundef null, i1 noundef zeroext false)
  %8 = tail call ptr @find_option(ptr noundef %1, i1 noundef zeroext false, i1 noundef zeroext true, i32 noundef 19)
  %.not = icmp eq ptr %8, null
  br i1 %.not, label %11, label %9

9:                                                ; preds = %2
  %10 = load ptr, ptr %8, align 8
  br label %11

11:                                               ; preds = %9, %2
  %.017 = phi ptr [ %10, %9 ], [ %1, %2 ]
  %.not20 = icmp eq ptr %0, null
  br i1 %.not20, label %.loopexit, label %12

12:                                               ; preds = %11
  store i32 1, ptr %4, align 4
  %13 = getelementptr inbounds nuw i8, ptr %0, i64 16
  store i32 1, ptr %3, align 4
  %14 = load i32, ptr %13, align 4
  %.not2123 = icmp slt i32 %14, 1
  br i1 %.not2123, label %.loopexit, label %.lr.ph

.lr.ph:                                           ; preds = %12, %37
  %.01624 = phi ptr [ %.1, %37 ], [ null, %12 ]
  call void @llvm.lifetime.start.p0(i64 8, ptr nonnull %5) #29
  call void @llvm.lifetime.start.p0(i64 1, ptr nonnull %6) #29
  %15 = call i64 @array_ref(ptr noundef nonnull %0, i32 noundef 1, ptr noundef nonnull %3, i32 noundef -1, i32 noundef -1, i1 noundef zeroext false, i8 noundef signext 105, ptr noundef nonnull %6) #29
  store i64 %15, ptr %5, align 8
  %16 = load i8, ptr %6, align 1, !range !4, !noundef !5
  %17 = trunc nuw i8 %16 to i1
  br i1 %17, label %37, label %18

18:                                               ; preds = %.lr.ph
  %19 = inttoptr i64 %15 to ptr
  %20 = call ptr @text_to_cstring(ptr noundef %19) #29
  %21 = call i64 @strlen(ptr noundef nonnull dereferenceable(1) %.017) #30
  %22 = call i32 @strncmp(ptr noundef %20, ptr noundef nonnull %.017, i64 noundef %21) #30
  %23 = icmp eq i32 %22, 0
  br i1 %23, label %24, label %28

24:                                               ; preds = %18
  %25 = getelementptr inbounds nuw i8, ptr %20, i64 %21
  %26 = load i8, ptr %25, align 1
  %27 = icmp eq i8 %26, 61
  br i1 %27, label %37, label %28

28:                                               ; preds = %24, %18
  %.not22 = icmp eq ptr %.01624, null
  br i1 %.not22, label %32, label %29

29:                                               ; preds = %28
  %30 = load i64, ptr %5, align 8
  %31 = call ptr @array_set(ptr noundef nonnull %.01624, i32 noundef 1, ptr noundef nonnull %4, i64 noundef %30, i1 noundef zeroext false, i32 noundef -1, i32 noundef -1, i1 noundef zeroext false, i8 noundef signext 105) #29
  br label %34

32:                                               ; preds = %28
  %33 = call ptr @construct_array_builtin(ptr noundef nonnull %5, i32 noundef 1, i32 noundef 25) #29
  br label %34

34:                                               ; preds = %32, %29
  %.2 = phi ptr [ %31, %29 ], [ %33, %32 ]
  %35 = load i32, ptr %4, align 4
  %36 = add i32 %35, 1
  store i32 %36, ptr %4, align 4
  br label %37

37:                                               ; preds = %24, %.lr.ph, %34
  %.1 = phi ptr [ %.2, %34 ], [ %.01624, %.lr.ph ], [ %.01624, %24 ]
  call void @llvm.lifetime.end.p0(i64 1, ptr nonnull %6) #29
  call void @llvm.lifetime.end.p0(i64 8, ptr nonnull %5) #29
  %38 = load i32, ptr %3, align 4
  %39 = add i32 %38, 1
  store i32 %39, ptr %3, align 4
  %40 = load i32, ptr %13, align 4
  %.not21 = icmp sgt i32 %39, %40
  br i1 %.not21, label %.loopexit, label %.lr.ph, !llvm.loop !64

.loopexit:                                        ; preds = %37, %12, %11
  %.0 = phi ptr [ null, %11 ], [ null, %12 ], [ %.1, %37 ]
  call void @llvm.lifetime.end.p0(i64 4, ptr nonnull %4) #29
  call void @llvm.lifetime.end.p0(i64 4, ptr nonnull %3) #29
  ret ptr %.0
}